target datalayout = "e-m:e-p270:32:32-p271:32:32-p272:64:64-i64:64-i128:128-f80:128-n8:16:32:64-S128"
target triple = "x86_64-pc-linux-gnu"

%struct.strvec = type { ptr, i64, i64 }
%struct.credential_capability = type { i8, [3 x i8] }
%struct.strbuf = type { i64, i64, ptr }
%struct.credential = type { %struct.string_list, %struct.strvec, %struct.strvec, %struct.strvec, i16, [2 x i8], %struct.credential_capability, %struct.credential_capability, ptr, ptr, ptr, ptr, ptr, ptr, ptr, i64, ptr }
%struct.string_list = type { ptr, i64, i64, i8, ptr }

@.str.41 = private unnamed_addr constant [6 x i8] c"%s://\00", align 1
@__const.credential_ask_one.desc = private unnamed_addr constant %struct.strbuf { i64 0, i64 0, ptr @strbuf_slopbuf }, align 8
@__const.credential_ask_one.prompt = private unnamed_addr constant %struct.strbuf { i64 0, i64 0, ptr @strbuf_slopbuf }, align 8
@.str.54 = private unnamed_addr constant [14 x i8] c"%s for '%s': \00", align 1
@.str.55 = private unnamed_addr constant [5 x i8] c"%s: \00", align 1
@.str.56 = private unnamed_addr constant [4 x i8] c"%s@\00", align 1
@.str.57 = private unnamed_addr constant [4 x i8] c"/%s\00", align 1

; Function Attrs: inlinehint nounwind uwtable
define internal void @strbuf_addstr(ptr noundef %0, ptr noundef %1) #7 {
  %3 = alloca ptr, align 8
  %4 = alloca ptr, align 8
  store ptr %0, ptr %3, align 8, !tbaa !75
  store ptr %1, ptr %4, align 8, !tbaa !32
  %5 = load ptr, ptr %3, align 8, !tbaa !75
  %6 = load ptr, ptr %4, align 8, !tbaa !32
  %7 = load ptr, ptr %4, align 8, !tbaa !32
  %8 = call i64 @strlen(ptr noundef %7) #11
  call void @strbuf_add(ptr noundef %5, ptr noundef %6, i64 noundef %8)
  ret void
}

; Function Attrs: nounwind uwtable
define internal void @credential_describe(ptr noundef %0, ptr noundef %1) #0 {
  %3 = alloca ptr, align 8
  %4 = alloca ptr, align 8
  store ptr %0, ptr %3, align 8, !tbaa !4
  store ptr %1, ptr %4, align 8, !tbaa !75
  %5 = load ptr, ptr %3, align 8, !tbaa !4
  %6 = getelementptr inbounds nuw %struct.credential, ptr %5, i32 0, i32 11
  %7 = load ptr, ptr %6, align 8, !tbaa !9
  %8 = icmp ne ptr %7, null
  br i1 %8, label %10, label %9

9:                                                ; preds = %2
  br label %51

10:                                               ; preds = %2
  %11 = load ptr, ptr %4, align 8, !tbaa !75
  %12 = load ptr, ptr %3, align 8, !tbaa !4
  %13 = getelementptr inbounds nuw %struct.credential, ptr %12, i32 0, i32 11
  %14 = load ptr, ptr %13, align 8, !tbaa !9
  call void (ptr, ptr, ...) @strbuf_addf(ptr noundef %11, ptr noundef @.str.41, ptr noundef %14)
  %15 = load ptr, ptr %3, align 8, !tbaa !4
  %16 = getelementptr inbounds nuw %struct.credential, ptr %15, i32 0, i32 8
  %17 = load ptr, ptr %16, align 8, !tbaa !21
  %18 = icmp ne ptr %17, null
  br i1 %18, label %19, label %31

19:                                               ; preds = %10
  %20 = load ptr, ptr %3, align 8, !tbaa !4
  %21 = getelementptr inbounds nuw %struct.credential, ptr %20, i32 0, i32 8
  %22 = load ptr, ptr %21, align 8, !tbaa !21
  %23 = load i8, ptr %22, align 1, !tbaa !36
  %24 = sext i8 %23 to i32
  %25 = icmp ne i32 %24, 0
  br i1 %25, label %26, label %31

26:                                               ; preds = %19
  %27 = load ptr, ptr %4, align 8, !tbaa !75
  %28 = load ptr, ptr %3, align 8, !tbaa !4
  %29 = getelementptr inbounds nuw %struct.credential, ptr %28, i32 0, i32 8
  %30 = load ptr, ptr %29, align 8, !tbaa !21
  call void (ptr, ptr, ...) @strbuf_addf(ptr noundef %27, ptr noundef @.str.56, ptr noundef %30)
  br label %31

31:                                               ; preds = %26, %19, %10
  %32 = load ptr, ptr %3, align 8, !tbaa !4
  %33 = getelementptr inbounds nuw %struct.credential, ptr %32, i32 0, i32 12
  %34 = load ptr, ptr %33, align 8, !tbaa !19
  %35 = icmp ne ptr %34, null
  br i1 %35, label %36, label %41

36:                                               ; preds = %31
  %37 = load ptr, ptr %4, align 8, !tbaa !75
  %38 = load ptr, ptr %3, align 8, !tbaa !4
  %39 = getelementptr inbounds nuw %struct.credential, ptr %38, i32 0, i32 12
  %40 = load ptr, ptr %39, align 8, !tbaa !19
  call void @strbuf_addstr(ptr noundef %37, ptr noundef %40)
  br label %41

41:                                               ; preds = %36, %31
  %42 = load ptr, ptr %3, align 8, !tbaa !4
  %43 = getelementptr inbounds nuw %struct.credential, ptr %42, i32 0, i32 13
  %44 = load ptr, ptr %43, align 8, !tbaa !20
  %45 = icmp ne ptr %44, null
  br i1 %45, label %46, label %51

46:                                               ; preds = %41
  %47 = load ptr, ptr %4, align 8, !tbaa !75
  %48 = load ptr, ptr %3, align 8, !tbaa !4
  %49 = getelementptr inbounds nuw %struct.credential, ptr %48, i32 0, i32 13
  %50 = load ptr, ptr %49, align 8, !tbaa !20
  call void (ptr, ptr, ...) @strbuf_addf(ptr noundef %47, ptr noundef @.str.57, ptr noundef %50)
  br label %51

51:                                               ; preds = %9, %46, %41
  ret void
}

; Function Attrs: nounwind uwtable
define internal ptr @credential_ask_one(ptr noundef %0, ptr noundef %1, i32 noundef %2) #0 {
  %4 = alloca ptr, align 8
  %5 = alloca ptr, align 8
  %6 = alloca i32, align 4
  %7 = alloca %struct.strbuf, align 8
  %8 = alloca %struct.strbuf, align 8
  %9 = alloca ptr, align 8
  store ptr %0, ptr %4, align 8, !tbaa !32
  store ptr %1, ptr %5, align 8, !tbaa !4
  store i32 %2, ptr %6, align 4, !tbaa !27
  call void @llvm.lifetime.start.p0(i64 24, ptr %7) #10
  call void @llvm.memcpy.p0.p0.i64(ptr align 8 %7, ptr align 8 @__const.credential_ask_one.desc, i64 24, i1 false)
  call void @llvm.lifetime.start.p0(i64 24, ptr %8) #10
  call void @llvm.memcpy.p0.p0.i64(ptr align 8 %8, ptr align 8 @__const.credential_ask_one.prompt, i64 24, i1 false)
  call void @llvm.lifetime.start.p0(i64 8, ptr %9) #10
  %10 = load ptr, ptr %5, align 8, !tbaa !4
  %11 = getelementptr inbounds nuw %struct.credential, ptr %10, i32 0, i32 4
  %12 = load i16, ptr %11, align 8
  %13 = lshr i16 %12, 8
  %14 = and i16 %13, 1
  %15 = zext i16 %14 to i32
  %16 = icmp ne i32 %15, 0
  br i1 %16, label %17, label %19

17:                                               ; preds = %3
  %18 = load ptr, ptr %5, align 8, !tbaa !4
  call void @credential_format(ptr noundef %18, ptr noundef %7)
  br label %21

19:                                               ; preds = %3
  %20 = load ptr, ptr %5, align 8, !tbaa !4
  call void @credential_describe(ptr noundef %20, ptr noundef %7)
  br label %21

21:                                               ; preds = %19, %17
  %22 = getelementptr inbounds nuw %struct.strbuf, ptr %7, i32 0, i32 1
  %23 = load i64, ptr %22, align 8, !tbaa !35
  %24 = icmp ne i64 %23, 0
  br i1 %24, label %25, label %29

25:                                               ; preds = %21
  %26 = load ptr, ptr %4, align 8, !tbaa !32
  %27 = getelementptr inbounds nuw %struct.strbuf, ptr %7, i32 0, i32 2
  %28 = load ptr, ptr %27, align 8, !tbaa !33
  call void (ptr, ptr, ...) @strbuf_addf(ptr noundef %8, ptr noundef @.str.54, ptr noundef %26, ptr noundef %28)
  br label %31

29:                                               ; preds = %21
  %30 = load ptr, ptr %4, align 8, !tbaa !32
  call void (ptr, ptr, ...) @strbuf_addf(ptr noundef %8, ptr noundef @.str.55, ptr noundef %30)
  br label %31

31:                                               ; preds = %29, %25
  %32 = getelementptr inbounds nuw %struct.strbuf, ptr %8, i32 0, i32 2
  %33 = load ptr, ptr %32, align 8, !tbaa !33
  %34 = load i32, ptr %6, align 4, !tbaa !27
  %35 = call ptr @git_prompt(ptr noundef %33, i32 noundef %34)
  store ptr %35, ptr %9, align 8, !tbaa !32
  call void @strbuf_release(ptr noundef %7)
  call void @strbuf_release(ptr noundef %8)
  %36 = load ptr, ptr %9, align 8, !tbaa !32
  %37 = call ptr @xstrdup(ptr noundef %36)
  call void @llvm.lifetime.end.p0(i64 8, ptr %9) #10
  call void @llvm.lifetime.end.p0(i64 24, ptr %8) #10
  call void @llvm.lifetime.end.p0(i64 24, ptr %7) #10
  ret ptr %37
}