; Function Attrs: nounwind uwtable
define internal fastcc ptr @credential_ask_one(ptr noundef %0, ptr noundef readonly captures(none) %1, i32 noundef range(i32 1, 4) %2) unnamed_addr #3 {
  %4 = alloca %struct.strbuf, align 8
  %5 = alloca %struct.strbuf, align 8
  call void @llvm.lifetime.start.p0(i64 24, ptr nonnull %4) #19
  call void @llvm.memcpy.p0.p0.i64(ptr noundef nonnull align 8 dereferenceable(24) %4, ptr noundef nonnull align 8 dereferenceable(24) @__const.credential_ask_one.prompt, i64 24, i1 false)
  call void @llvm.lifetime.start.p0(i64 24, ptr nonnull %5) #19
  call void @llvm.memcpy.p0.p0.i64(ptr noundef nonnull align 8 dereferenceable(24) %5, ptr noundef nonnull align 8 dereferenceable(24) @__const.credential_ask_one.prompt, i64 24, i1 false)
  %6 = getelementptr inbounds nuw i8, ptr %1, i64 112
  %7 = load i16, ptr %6, align 8
  %8 = and i16 %7, 256
  %.not = icmp eq i16 %8, 0
  br i1 %.not, label %10, label %9

9:                                                ; preds = %3
  call fastcc void @credential_format(ptr noundef nonnull %1, ptr noundef %4)
  br label %credential_describe.exit

10:                                               ; preds = %3
  %11 = getelementptr inbounds nuw i8, ptr %1, i64 152
  %12 = load ptr, ptr %11, align 8, !tbaa !18
  %.not.i = icmp eq ptr %12, null
  br i1 %.not.i, label %credential_describe.exit, label %13

13:                                               ; preds = %10
  call void (ptr, ptr, ...) @strbuf_addf(ptr noundef nonnull %4, ptr noundef nonnull @.str.41, ptr noundef nonnull %12) #19
  %14 = getelementptr inbounds nuw i8, ptr %1, i64 128
  %15 = load ptr, ptr %14, align 8, !tbaa !21
  %.not16.i = icmp eq ptr %15, null
  br i1 %.not16.i, label %19, label %16

16:                                               ; preds = %13
  %17 = load i8, ptr %15, align 1, !tbaa !27
  %.not17.i = icmp eq i8 %17, 0
  br i1 %.not17.i, label %19, label %18

18:                                               ; preds = %16
  call void (ptr, ptr, ...) @strbuf_addf(ptr noundef nonnull %4, ptr noundef nonnull @.str.56, ptr noundef nonnull %15) #19
  br label %19

19:                                               ; preds = %18, %16, %13
  %20 = getelementptr inbounds nuw i8, ptr %1, i64 160
  %21 = load ptr, ptr %20, align 8, !tbaa !19
  %.not18.i = icmp eq ptr %21, null
  br i1 %.not18.i, label %24, label %22

22:                                               ; preds = %19
  %23 = call i64 @strlen(ptr noundef nonnull dereferenceable(1) %21) #20
  call void @strbuf_add(ptr noundef nonnull %4, ptr noundef nonnull %21, i64 noundef %23) #19
  br label %24

24:                                               ; preds = %22, %19
  %25 = getelementptr inbounds nuw i8, ptr %1, i64 168
  %26 = load ptr, ptr %25, align 8, !tbaa !20
  %.not19.i = icmp eq ptr %26, null
  br i1 %.not19.i, label %credential_describe.exit, label %27

27:                                               ; preds = %24
  call void (ptr, ptr, ...) @strbuf_addf(ptr noundef nonnull %4, ptr noundef nonnull @.str.57, ptr noundef nonnull %26) #19
  br label %credential_describe.exit

credential_describe.exit:                         ; preds = %27, %24, %10, %9
  %28 = getelementptr inbounds nuw i8, ptr %4, i64 8
  %29 = load i64, ptr %28, align 8, !tbaa !26
  %.not6 = icmp eq i64 %29, 0
  br i1 %.not6, label %33, label %30

30:                                               ; preds = %credential_describe.exit
  %31 = getelementptr inbounds nuw i8, ptr %4, i64 16
  %32 = load ptr, ptr %31, align 8, !tbaa !24
  call void (ptr, ptr, ...) @strbuf_addf(ptr noundef nonnull %5, ptr noundef nonnull @.str.54, ptr noundef %0, ptr noundef %32) #19
  br label %34

33:                                               ; preds = %credential_describe.exit
  call void (ptr, ptr, ...) @strbuf_addf(ptr noundef nonnull %5, ptr noundef nonnull @.str.55, ptr noundef %0) #19
  br label %34

34:                                               ; preds = %33, %30
  %35 = getelementptr inbounds nuw i8, ptr %5, i64 16
  %36 = load ptr, ptr %35, align 8, !tbaa !24
  %37 = call ptr @git_prompt(ptr noundef %36, i32 noundef %2) #19
  call void @strbuf_release(ptr noundef nonnull %4) #19
  call void @strbuf_release(ptr noundef nonnull %5) #19
  %38 = call ptr @xstrdup(ptr noundef %37) #19
  call void @llvm.lifetime.end.p0(i64 24, ptr nonnull %5) #19
  call void @llvm.lifetime.end.p0(i64 24, ptr nonnull %4) #19
  ret ptr %38
}